******************************************************************************
                  TI ARM Linker PC v5.2.5                      
******************************************************************************
>> Linked Mon Aug 10 00:21:14 2015

OUTPUT FILE NAME:   <Asteroidz.out>
ENTRY POINT SYMBOL: "_c_int00"  address: 0000be7d


MEMORY CONFIGURATION

         name            origin    length      used     unused   attr    fill
----------------------  --------  ---------  --------  --------  ----  --------
  FLASH                 00000000   00040000  0000c21b  00033de5  R  X
  SRAM                  20000000   00008000  000006a5  0000795b  RW X


SEGMENT ALLOCATION MAP

run origin  load origin   length   init length attrs members
----------  ----------- ---------- ----------- ----- -------
00000000    00000000    0000c220   0000c220    r-x
  00000000    00000000    0000026c   0000026c    r-- .intvecs
  0000026c    0000026c    00007459   00007459    r-- .const
  000076c8    000076c8    00004ade   00004ade    r-x .text
  0000c1a8    0000c1a8    00000078   00000078    r-- .cinit
20000000    20000000    000006a5   00000000    rw-
  20000000    20000000    00000400   00000000    rw- .stack
  20000400    20000400    000002a4   00000000    rw- .data
  200006a4    200006a4    00000001   00000000    rw- .bss


SECTION ALLOCATION MAP

 output                                  attributes/
section   page    origin      length       input sections
--------  ----  ----------  ----------   ----------------
.intvecs   0    00000000    0000026c     
                  00000000    0000026c     tm4c123gh6pm_startup_ccs.obj (.intvecs)

.const     0    0000026c    00007459     
                  0000026c    00007358     game.obj (.const)
                  000075c4    00000101     rtsv7M4_T_le_v4SPD16_eabi.lib : ctype.obj (.const:.string:_ctypes_)

.text      0    000076c8    00004ade     
                  000076c8    0000163c     game.obj (.text)
                  00008d04    00001402     rtsv7M4_T_le_v4SPD16_eabi.lib : _printfi.obj (.text)
                  0000a106    00000002                                   : _lock.obj (.text)
                  0000a108    000005fe     LCD.obj (.text)
                  0000a706    00000002     --HOLE-- [fill = 0]
                  0000a708    000003f8     driver.obj (.text)
                  0000ab00    00000380     rtsv7M4_T_le_v4SPD16_eabi.lib : sqrt.obj (.text)
                  0000ae80    000002a0                                   : ldexp.obj (.text)
                  0000b120    000001f4                                   : ull_div_t2.obj (.text)
                  0000b314    00000004                                   : pre_init.obj (.text)
                  0000b318    000001c0     interrupts.obj (.text)
                  0000b4d8    000001b6     rtsv7M4_T_le_v4SPD16_eabi.lib : fd_add_t2.obj (.text)
                  0000b68e    00000136                                   : fd_div_t2.obj (.text)
                  0000b7c4    0000011a                                   : xdunscal.obj (.text)
                  0000b8de    000000fc                                   : fd_mul_t2.obj (.text)
                  0000b9da    00000006                                   : copy_decompress_rle.obj (.text:decompress:rle24)
                  0000b9e0    000000f8     main.obj (.text)
                  0000bad8    0000009c     rtsv7M4_T_le_v4SPD16_eabi.lib : memcpy_t2.obj (.text)
                  0000bb74    00000086                                   : fd_cmp_t2.obj (.text:__aeabi_cdcmple)
                  0000bbfa    00000086                                   : fd_cmp_t2.obj (.text:__aeabi_cdrcmple)
                  0000bc80    0000007a                                   : memset_t2.obj (.text)
                  0000bcfa    00000002     --HOLE-- [fill = 0]
                  0000bcfc    0000006c                                   : autoinit.obj (.text)
                  0000bd68    0000006a                                   : copy_decompress_rle.obj (.text)
                  0000bdd2    00000056                                   : ltoa.obj (.text)
                  0000be28    00000052                                   : sprintf.obj (.text)
                  0000be7a    00000002     --HOLE-- [fill = 0]
                  0000be7c    00000050                                   : boot.obj (.text)
                  0000becc    0000004c                                   : cpy_tbl.obj (.text)
                  0000bf18    00000048                                   : fd_toi_t2.obj (.text)
                  0000bf60    00000048                                   : rand.obj (.text)
                  0000bfa8    00000044                                   : exit.obj (.text)
                  0000bfec    00000044                                   : fd_tou_t2.obj (.text)
                  0000c030    0000003c                                   : signal.obj (.text)
                  0000c06c    00000030                                   : xferaise.obj (.text)
                  0000c09c    0000002e                                   : i_tofd_t2.obj (.text)
                  0000c0ca    00000026                                   : raise.obj (.text)
                  0000c0f0    00000022                                   : frexp.obj (.text)
                  0000c112    00000002     --HOLE-- [fill = 0]
                  0000c114    00000020                                   : feraiseexcept.obj (.text)
                  0000c134    00000020                                   : u_tofd_t2.obj (.text)
                  0000c154    00000004     --HOLE-- [fill = 0]
                  0000c158    0000001a     tm4c123gh6pm_startup_ccs.obj (.text)
                  0000c172    00000002     --HOLE-- [fill = 0]
                  0000c174    00000018     rtsv7M4_T_le_v4SPD16_eabi.lib : args_main.obj (.text)
                  0000c18c    0000000e                                   : copy_decompress_none.obj (.text:decompress:none)
                  0000c19a    0000000c                                   : copy_zero_init.obj (.text:decompress:ZI)

.cinit     0    0000c1a8    00000078     
                  0000c1a8    0000004d     (.cinit..data.load) [load image, compression = rle]
                  0000c1f5    00000003     --HOLE-- [fill = 0]
                  0000c1f8    0000000c     (__TI_handler_table)
                  0000c204    00000004     --HOLE-- [fill = 0]
                  0000c208    00000008     (.cinit..bss.load) [load image, compression = zero_init]
                  0000c210    00000010     (__TI_cinit_table)

.init_array 
*          0    00000000    00000000     UNINITIALIZED

.stack     0    20000000    00000400     UNINITIALIZED
                  20000000    00000400     --HOLE--

.data      0    20000400    000002a4     UNINITIALIZED
                  20000400    00000150     game.obj (.data)
                  20000550    000000b0     rtsv7M4_T_le_v4SPD16_eabi.lib : signal.obj (.data:sigtable$29)
                  20000600    00000080                                   : xvalues.obj (.data)
                  20000680    00000008                                   : _lock.obj (.data)
                  20000688    00000008                                   : exit.obj (.data)
                  20000690    00000008                                   : feraiseexcept.obj (.data)
                  20000698    00000004                                   : errno.obj (.data)
                  2000069c    00000004                                   : rand.obj (.data)
                  200006a0    00000004                                   : stkdepth_vars.obj (.data)

.bss       0    200006a4    00000001     UNINITIALIZED
                  200006a4    00000001     (.common:start)

.TI.persistent 
*          0    20000400    00000000     UNINITIALIZED

.TI.noinit 
*          0    200006a4    00000000     UNINITIALIZED


LINKER GENERATED COPY TABLES

__TI_cinit_table @ 0000c210 records: 2, size/record: 8, table size: 16
	.data: load addr=0000c1a8, load size=0000004d bytes, run addr=20000400, run size=000002a4 bytes, compression=rle
	.bss: load addr=0000c208, load size=00000008 bytes, run addr=200006a4, run size=00000001 bytes, compression=zero_init


LINKER GENERATED HANDLER TABLE

__TI_handler_table @ 0000c1f8 records: 3, size/record: 4, table size: 12
	index: 0, handler: __TI_decompress_rle24
	index: 1, handler: __TI_decompress_none
	index: 2, handler: __TI_zero_init


GLOBAL SYMBOLS: SORTED ALPHABETICALLY BY Name 

address   name                     
-------   ----                     
0000aa69  ADC0                     
0000aa99  ADC1                     
00008cc1  Asteroid_Handler         
0000bfa9  C$$EXIT                  
00008c31  Distance_Handler         
000089e9  GPIOPortA_Handler        
0000a951  Init_Analog              
000077c9  Init_Asteroids           
0000aa11  Init_EEPROM              
000076c9  Init_Explosions          
0000b319  Init_Interrupt           
0000a221  Init_LCD                 
0000a709  Init_PLL                 
00008719  Init_Player              
0000a771  Init_Port                
00007779  Init_PowerUp             
0000b471  Init_Sound               
00007849  Init_StartScreen         
0000b3a1  Init_Timer0A             
0000b409  Init_Timer1A             
00007891  PowerUp_Status           
0000c159  ResetISR                 
UNDEFED   SHT$$INIT_ARRAY$$Base    
UNDEFED   SHT$$INIT_ARRAY$$Limit   
000089a9  Sound_Handler            
00008971  Touchscreen_Handler      
20000600  _Denorm                  
0000b7c5  _Dunscale                
20000610  _Eps                     
20000698  _Errno                   
20000690  _Fenv                    
0000c06d  _Feraise                 
20000620  _Hugeval                 
20000670  _Inf                     
20000660  _Nan                     
20000640  _Rteps                   
20000630  _Snan                    
20000694  _Tls_setup__Fenv         
20000650  _Xbig                    
20000658  _Zero                    
20000400  __STACK_END              
00000400  __STACK_SIZE             
20000200  __STACK_TOP              
0000c210  __TI_CINIT_Base          
0000c220  __TI_CINIT_Limit         
0000c1f8  __TI_Handler_Table_Base  
0000c204  __TI_Handler_Table_Limit 
0000bcfd  __TI_auto_init           
20000688  __TI_cleanup_ptr         
0000c18d  __TI_decompress_none     
0000b9db  __TI_decompress_rle24    
2000068c  __TI_dtors_ptr           
00009f2b  __TI_printfi             
00000000  __TI_static_base__       
0000c19b  __TI_zero_init           
0000bb75  __aeabi_cdcmpeq          
0000bb75  __aeabi_cdcmple          
0000bbfb  __aeabi_cdrcmple         
0000bf19  __aeabi_d2iz             
0000bfed  __aeabi_d2uiz            
0000b4e3  __aeabi_dadd             
0000b68f  __aeabi_ddiv             
0000b8df  __aeabi_dmul             
0000b4d9  __aeabi_dsub             
0000c09d  __aeabi_i2d              
0000bc81  __aeabi_memclr           
0000bc81  __aeabi_memclr4          
0000bc81  __aeabi_memclr8          
0000bad9  __aeabi_memcpy           
0000bad9  __aeabi_memcpy4          
0000bad9  __aeabi_memcpy8          
0000bc83  __aeabi_memset           
0000bc83  __aeabi_memset4          
0000bc83  __aeabi_memset8          
0000c135  __aeabi_ui2d             
0000b121  __aeabi_uldivmod         
ffffffff  __binit__                
ffffffff  __c_args__               
20000000  __stack                  
0000c175  _args_main               
0000be7d  _c_int00                 
000075c4  _ctypes_                 
20000680  _lock                    
0000a107  _nop                     
0000b315  _system_pre_init         
20000684  _unlock                  
0000bfad  abort                    
00008c81  addAsteroidMedium        
200004c4  asteroid                 
000002b6  asteroidm                
ffffffff  binit                    
0000a9f9  check_eeprom_done        
0000a5d9  clearArea                
0000a501  clearLCD                 
000005d6  coin_fade_image          
00000446  coin_image               
00007931  collision                
00000766  color_palette            
0000becd  copy_in                  
0000a919  delayMS                  
000081a1  deployAsteroid           
00007de1  detectPlayerCollision    
000085f1  displayCountDown         
00007b11  displayEndScreen         
00007cb9  displayExplosionAnimation
0000aac9  erase_eeprom             
0000bfb5  exit                     
20000464  explosion                
00002812  explosionImage0          
000031d6  explosionImage1          
00003b9a  explosionImage2          
0000455e  explosionImage3          
0000c115  feraiseexcept            
000013f2  font8x8_basic            
0000c0f1  frexp                    
00000000  g_pfnVectors             
00001d52  invulnerable_spaceship   
0000ae81  ldexp                    
000086b1  level_one                
00008ad1  level_two                
00007db1  loopEndGame              
0000bdd3  ltoa                     
0000b9e1  main                     
200006a0  main_func_sp             
0000bad9  memcpy                   
0000bc89  memset                   
00008309  moveAsteroid             
000084a9  movePowerUp              
00007d89  playSound                
20000418  player                   
00007f51  playerControl            
20000434  powerup                  
00000cea  powerup_points_image     
00000966  powerup_shield_image     
0000106e  powerup_star_image       
00007bb1  printBMP2                
0000c0cb  raise                    
0000bf75  rand                     
00008a41  randomValue              
00007a01  read_highscore           
20000400  reset                    
000088c1  resetGame                
0000a6f1  setCursor                
0000a4c9  setWindow                
0000c031  signal                   
000017f2  spaceshipImage           
000022b2  spaceship_item_acquired  
00008a59  spawnPowerUp             
0000be4b  sprintf                  
0000ab01  sqrt                     
0000bf61  srand                    
200006a4  start                    
00004f22  start_image              
00007a41  writeCharacter           
0000a109  writeCmd                 
0000a159  writeData                
0000a1a9  writeReg                 
00007ab1  writeString              
00007ad9  write_highscore          


GLOBAL SYMBOLS: SORTED BY Symbol Address 

address   name                     
-------   ----                     
00000000  __TI_static_base__       
00000000  g_pfnVectors             
000002b6  asteroidm                
00000400  __STACK_SIZE             
00000446  coin_image               
000005d6  coin_fade_image          
00000766  color_palette            
00000966  powerup_shield_image     
00000cea  powerup_points_image     
0000106e  powerup_star_image       
000013f2  font8x8_basic            
000017f2  spaceshipImage           
00001d52  invulnerable_spaceship   
000022b2  spaceship_item_acquired  
00002812  explosionImage0          
000031d6  explosionImage1          
00003b9a  explosionImage2          
0000455e  explosionImage3          
00004f22  start_image              
000075c4  _ctypes_                 
000076c9  Init_Explosions          
00007779  Init_PowerUp             
000077c9  Init_Asteroids           
00007849  Init_StartScreen         
00007891  PowerUp_Status           
00007931  collision                
00007a01  read_highscore           
00007a41  writeCharacter           
00007ab1  writeString              
00007ad9  write_highscore          
00007b11  displayEndScreen         
00007bb1  printBMP2                
00007cb9  displayExplosionAnimation
00007d89  playSound                
00007db1  loopEndGame              
00007de1  detectPlayerCollision    
00007f51  playerControl            
000081a1  deployAsteroid           
00008309  moveAsteroid             
000084a9  movePowerUp              
000085f1  displayCountDown         
000086b1  level_one                
00008719  Init_Player              
000088c1  resetGame                
00008971  Touchscreen_Handler      
000089a9  Sound_Handler            
000089e9  GPIOPortA_Handler        
00008a41  randomValue              
00008a59  spawnPowerUp             
00008ad1  level_two                
00008c31  Distance_Handler         
00008c81  addAsteroidMedium        
00008cc1  Asteroid_Handler         
00009f2b  __TI_printfi             
0000a107  _nop                     
0000a109  writeCmd                 
0000a159  writeData                
0000a1a9  writeReg                 
0000a221  Init_LCD                 
0000a4c9  setWindow                
0000a501  clearLCD                 
0000a5d9  clearArea                
0000a6f1  setCursor                
0000a709  Init_PLL                 
0000a771  Init_Port                
0000a919  delayMS                  
0000a951  Init_Analog              
0000a9f9  check_eeprom_done        
0000aa11  Init_EEPROM              
0000aa69  ADC0                     
0000aa99  ADC1                     
0000aac9  erase_eeprom             
0000ab01  sqrt                     
0000ae81  ldexp                    
0000b121  __aeabi_uldivmod         
0000b315  _system_pre_init         
0000b319  Init_Interrupt           
0000b3a1  Init_Timer0A             
0000b409  Init_Timer1A             
0000b471  Init_Sound               
0000b4d9  __aeabi_dsub             
0000b4e3  __aeabi_dadd             
0000b68f  __aeabi_ddiv             
0000b7c5  _Dunscale                
0000b8df  __aeabi_dmul             
0000b9db  __TI_decompress_rle24    
0000b9e1  main                     
0000bad9  __aeabi_memcpy           
0000bad9  __aeabi_memcpy4          
0000bad9  __aeabi_memcpy8          
0000bad9  memcpy                   
0000bb75  __aeabi_cdcmpeq          
0000bb75  __aeabi_cdcmple          
0000bbfb  __aeabi_cdrcmple         
0000bc81  __aeabi_memclr           
0000bc81  __aeabi_memclr4          
0000bc81  __aeabi_memclr8          
0000bc83  __aeabi_memset           
0000bc83  __aeabi_memset4          
0000bc83  __aeabi_memset8          
0000bc89  memset                   
0000bcfd  __TI_auto_init           
0000bdd3  ltoa                     
0000be4b  sprintf                  
0000be7d  _c_int00                 
0000becd  copy_in                  
0000bf19  __aeabi_d2iz             
0000bf61  srand                    
0000bf75  rand                     
0000bfa9  C$$EXIT                  
0000bfad  abort                    
0000bfb5  exit                     
0000bfed  __aeabi_d2uiz            
0000c031  signal                   
0000c06d  _Feraise                 
0000c09d  __aeabi_i2d              
0000c0cb  raise                    
0000c0f1  frexp                    
0000c115  feraiseexcept            
0000c135  __aeabi_ui2d             
0000c159  ResetISR                 
0000c175  _args_main               
0000c18d  __TI_decompress_none     
0000c19b  __TI_zero_init           
0000c1f8  __TI_Handler_Table_Base  
0000c204  __TI_Handler_Table_Limit 
0000c210  __TI_CINIT_Base          
0000c220  __TI_CINIT_Limit         
20000000  __stack                  
20000200  __STACK_TOP              
20000400  __STACK_END              
20000400  reset                    
20000418  player                   
20000434  powerup                  
20000464  explosion                
200004c4  asteroid                 
20000600  _Denorm                  
20000610  _Eps                     
20000620  _Hugeval                 
20000630  _Snan                    
20000640  _Rteps                   
20000650  _Xbig                    
20000658  _Zero                    
20000660  _Nan                     
20000670  _Inf                     
20000680  _lock                    
20000684  _unlock                  
20000688  __TI_cleanup_ptr         
2000068c  __TI_dtors_ptr           
20000690  _Fenv                    
20000694  _Tls_setup__Fenv         
20000698  _Errno                   
200006a0  main_func_sp             
200006a4  start                    
ffffffff  __binit__                
ffffffff  __c_args__               
ffffffff  binit                    
UNDEFED   SHT$$INIT_ARRAY$$Base    
UNDEFED   SHT$$INIT_ARRAY$$Limit   

[159 symbols]
